Certificate:
    Data:
        Version: 3 (0x2)
        Serial Number:
            1b:39:70:c5:fe:f7:d6:9f:0c:44:23:fc:f1:f4:95:8f:ce:ed:d9:7b
        Signature Algorithm: sha256WithRSAEncryption
        Issuer: C = TW, ST = Taiwan, L = TPE, O = NTU, OU = IM, CN = localhost, emailAddress = 0Lfts_client@icheft
        Validity
            Not Before: Jan 17 14:54:15 2022 GMT
            Not After : Jan 17 14:54:15 2023 GMT
        Subject: C = TW, ST = Taiwan, L = TPE, O = NTU, OU = IM, CN = localhost, emailAddress = 0Lfts_client@icheft
        Subject Public Key Info:
            Public Key Algorithm: rsaEncryption
                Public-Key: (2048 bit)
                Modulus:
                    00:d8:27:c9:87:54:5d:fd:d4:26:8c:cb:19:3d:b1:
                    ee:36:40:1b:a0:b6:24:d8:50:8f:d2:ee:78:fb:30:
                    11:0f:d3:89:66:25:24:13:9f:b5:51:e4:f5:ad:64:
                    44:3b:fd:3c:f0:14:ed:23:c0:2a:06:f6:cd:dd:3c:
                    83:81:e3:4c:52:81:c2:59:d8:de:e9:97:5e:32:69:
                    62:d2:c0:17:ab:9d:4d:8d:4d:56:bd:9f:89:5b:91:
                    ee:55:98:9e:19:67:61:56:5e:f7:38:fb:60:b0:f5:
                    21:9f:a3:e1:42:38:dd:ac:08:a1:f6:04:fe:ed:3d:
                    d9:96:f3:c8:7e:dd:57:6b:fc:e9:a6:bc:03:f4:eb:
                    1f:5e:0d:f5:6f:17:b1:29:a6:71:6e:9d:2a:ee:be:
                    c5:e8:6d:11:aa:a6:73:f1:cc:13:cd:33:e6:32:f3:
                    22:73:04:fa:01:3f:c1:5e:d4:c4:83:c6:28:b0:d5:
                    08:4d:ae:70:26:53:0f:3a:b7:c4:33:02:b9:f7:ce:
                    98:2e:33:e0:61:33:6d:61:d7:42:b8:18:a0:83:ce:
                    13:4e:87:b5:c7:d7:fa:54:c2:62:bf:81:cb:ee:c5:
                    81:79:6f:fe:f9:da:1b:dc:30:6d:33:e3:64:d5:f8:
                    9b:2c:e9:40:f6:e3:cc:9a:d4:7c:f3:fb:bf:eb:02:
                    d7:f7
                Exponent: 65537 (0x10001)
        X509v3 extensions:
            X509v3 Subject Key Identifier: 
                0B:8D:54:7E:6D:97:F9:C3:10:4B:7D:93:87:A3:EE:A8:E2:70:2D:85
            X509v3 Authority Key Identifier: 
                0B:8D:54:7E:6D:97:F9:C3:10:4B:7D:93:87:A3:EE:A8:E2:70:2D:85
            X509v3 Basic Constraints: critical
                CA:TRUE
    Signature Algorithm: sha256WithRSAEncryption
    Signature Value:
        ba:0a:95:50:16:c4:d7:1a:f7:fd:53:2e:78:53:3d:e9:c3:1c:
        04:36:cb:6e:6d:f8:b7:df:ce:84:76:9a:82:1d:52:25:a9:68:
        d9:2c:69:0b:4f:b8:07:0f:ae:ad:5c:a7:e2:53:a7:89:1a:60:
        c7:f0:d3:ac:c7:58:56:11:a6:ab:fa:50:9e:a4:72:bf:6d:f2:
        36:ab:ef:14:f7:d6:f2:05:b1:2f:30:49:75:8f:29:16:de:74:
        89:54:11:68:2c:0d:e8:0f:91:66:b9:f9:08:b7:95:94:cb:0c:
        30:c7:f3:0c:8a:a9:c9:82:a3:62:17:27:d4:96:b1:8c:ae:12:
        53:6b:4c:3d:80:fa:32:eb:68:80:87:0b:db:a2:06:de:4c:62:
        06:63:b3:99:6d:a6:1b:55:a6:25:17:a5:c0:27:f6:cc:ad:97:
        f6:89:85:5f:ae:9a:aa:23:73:1f:6e:6e:a7:73:cf:0c:0b:73:
        af:dd:85:c2:c9:67:ff:e7:bc:8d:c1:16:84:7e:64:09:76:f3:
        c2:ce:f2:6e:c2:fc:62:50:52:2d:df:1a:99:2c:a8:1c:36:ab:
        a9:45:75:b5:97:6a:28:d1:e5:e2:9e:8a:9a:2b:01:2d:bf:80:
        08:ed:52:c9:4a:32:53:5f:58:88:1e:bb:c0:7c:a3:7c:29:1e:
        09:32:a3:f6
-----BEGIN CERTIFICATE-----
MIID3zCCAsegAwIBAgIUGzlwxf731p8MRCP88fSVj87t2XswDQYJKoZIhvcNAQEL
BQAwfzELMAkGA1UEBhMCVFcxDzANBgNVBAgMBlRhaXdhbjEMMAoGA1UEBwwDVFBF
MQwwCgYDVQQKDANOVFUxCzAJBgNVBAsMAklNMRIwEAYDVQQDDAlsb2NhbGhvc3Qx
IjAgBgkqhkiG9w0BCQEWEzBMZnRzX2NsaWVudEBpY2hlZnQwHhcNMjIwMTE3MTQ1
NDE1WhcNMjMwMTE3MTQ1NDE1WjB/MQswCQYDVQQGEwJUVzEPMA0GA1UECAwGVGFp
d2FuMQwwCgYDVQQHDANUUEUxDDAKBgNVBAoMA05UVTELMAkGA1UECwwCSU0xEjAQ
BgNVBAMMCWxvY2FsaG9zdDEiMCAGCSqGSIb3DQEJARYTMExmdHNfY2xpZW50QGlj
aGVmdDCCASIwDQYJKoZIhvcNAQEBBQADggEPADCCAQoCggEBANgnyYdUXf3UJozL
GT2x7jZAG6C2JNhQj9LuePswEQ/TiWYlJBOftVHk9a1kRDv9PPAU7SPAKgb2zd08
g4HjTFKBwlnY3umXXjJpYtLAF6udTY1NVr2fiVuR7lWYnhlnYVZe9zj7YLD1IZ+j
4UI43awIofYE/u092ZbzyH7dV2v86aa8A/TrH14N9W8XsSmmcW6dKu6+xehtEaqm
c/HME80z5jLzInME+gE/wV7UxIPGKLDVCE2ucCZTDzq3xDMCuffOmC4z4GEzbWHX
QrgYoIPOE06HtcfX+lTCYr+By+7FgXlv/vnaG9wwbTPjZNX4myzpQPbjzJrUfPP7
v+sC1/cCAwEAAaNTMFEwHQYDVR0OBBYEFAuNVH5tl/nDEEt9k4ej7qjicC2FMB8G
A1UdIwQYMBaAFAuNVH5tl/nDEEt9k4ej7qjicC2FMA8GA1UdEwEB/wQFMAMBAf8w
DQYJKoZIhvcNAQELBQADggEBALoKlVAWxNca9/1TLnhTPenDHAQ2y25t+LffzoR2
moIdUiWpaNksaQtPuAcPrq1cp+JTp4kaYMfw06zHWFYRpqv6UJ6kcr9t8jar7xT3
1vIFsS8wSXWPKRbedIlUEWgsDegPkWa5+Qi3lZTLDDDH8wyKqcmCo2IXJ9SWsYyu
ElNrTD2A+jLraICHC9uiBt5MYgZjs5ltphtVpiUXpcAn9sytl/aJhV+umqojcx9u
bqdzzwwLc6/dhcLJZ//nvI3BFoR+ZAl288LO8m7C/GJQUi3fGpksqBw2q6lFdbWX
aijR5eKeiporAS2/gAjtUslKMlNfWIgeu8B8o3wpHgkyo/Y=
-----END CERTIFICATE-----
Certificate:
    Data:
        Version: 1 (0x0)
        Serial Number:
            19:02:b0:ad:51:ca:f1:ae:25:f4:09:90:bc:c6:80:72:f0:8a:4c:77
        Signature Algorithm: sha256WithRSAEncryption
        Issuer: C = TW, ST = Taiwan, L = TPE, O = NTU, OU = IM, emailAddress = client@icheft, CN = localhost
        Validity
            Not Before: Jan 15 02:28:02 2022 GMT
            Not After : Feb 14 02:28:02 2022 GMT
        Subject: C = TW, ST = Taiwan, L = TPE, O = NTU, OU = IM, emailAddress = client@icheft, CN = localhost
        Subject Public Key Info:
            Public Key Algorithm: rsaEncryption
                Public-Key: (2048 bit)
                Modulus:
                    00:ef:82:e1:42:a1:71:68:ee:fd:7e:83:48:03:6e:
                    c3:83:d8:0e:dd:44:5a:03:97:b7:32:95:be:82:35:
                    63:44:ad:a1:a6:a4:f6:83:7b:28:b0:fb:f3:9f:a9:
                    a9:72:3c:67:77:ca:74:2d:97:c7:97:6f:79:2b:26:
                    1d:90:50:b2:72:8b:3b:b6:b7:42:5f:ab:1d:48:ca:
                    6a:64:26:15:e6:5b:41:74:34:93:01:cf:42:9d:4c:
                    ff:7e:76:d6:e2:6b:45:2e:3f:ad:04:d3:96:61:6b:
                    d6:60:8b:ed:c9:2a:77:f4:08:ed:e6:97:5e:ff:1d:
                    f0:04:18:ee:d8:48:ae:25:aa:8b:48:51:71:a2:b2:
                    f6:3c:bb:7d:a8:b2:45:7b:c6:fd:6d:12:0b:b7:76:
                    5f:97:a1:74:08:c6:24:a8:c1:82:75:81:52:f7:49:
                    fd:03:56:c7:1e:2d:b4:54:90:bc:5a:d0:d7:39:41:
                    68:9c:a3:9d:fc:1e:99:72:51:95:93:d0:19:21:d1:
                    b7:04:65:8d:5f:88:24:29:84:0e:ba:33:50:47:f6:
                    1a:ea:ab:03:1f:3f:10:8f:b6:f9:3c:2d:ed:31:74:
                    ab:82:8c:e2:e3:d1:35:1b:bd:68:63:c0:f8:d4:c8:
                    a7:61:3a:ec:9a:de:9d:a0:65:c4:1d:5d:7f:cf:00:
                    e9:67
                Exponent: 65537 (0x10001)
    Signature Algorithm: sha256WithRSAEncryption
    Signature Value:
        1a:2e:f7:8d:c2:e8:2a:e1:46:aa:35:24:7e:c9:85:94:a7:54:
        6b:9f:5e:3d:0f:d2:a0:00:9b:f2:72:0f:17:07:b5:b3:ec:e7:
        6a:94:dd:fd:4a:f0:a4:18:23:81:47:d8:01:4f:33:6a:0b:e0:
        b8:9a:bd:7d:df:29:f8:cf:62:cb:9a:e9:29:0b:bc:4e:f6:f7:
        3c:12:8d:ab:15:c0:61:df:8d:c4:6d:e9:52:62:29:0b:41:ac:
        ca:d1:0e:78:4a:32:69:64:5b:08:d4:99:93:b2:02:d9:b0:05:
        10:41:c8:d0:c1:0e:d9:ad:40:85:72:03:2e:10:1d:12:6e:45:
        0d:10:37:9b:35:ff:ec:60:5b:bd:0f:32:09:55:5b:c0:f3:e7:
        4c:54:57:d6:54:6e:3f:74:b9:5d:1e:5d:df:a0:81:45:0e:59:
        c1:26:fb:46:e4:86:ab:fe:8e:34:47:06:31:ca:41:07:27:eb:
        9d:3b:53:9f:f2:04:8d:09:53:a7:1c:d7:b8:50:ca:d4:5d:90:
        2a:82:e2:0a:fd:61:1d:d2:c9:63:d8:19:a0:a7:e0:8a:01:dd:
        4e:b9:ac:cf:e4:8f:85:2c:fc:42:76:ac:6d:dc:96:ed:93:01:
        70:4a:4e:92:a3:d4:be:62:38:85:83:36:5e:ae:d8:81:0e:13:
        5e:9e:64:19
-----BEGIN CERTIFICATE-----
MIIDeTCCAmECFBkCsK1RyvGuJfQJkLzGgHLwikx3MA0GCSqGSIb3DQEBCwUAMHkx
CzAJBgNVBAYTAlRXMQ8wDQYDVQQIDAZUYWl3YW4xDDAKBgNVBAcMA1RQRTEMMAoG
A1UECgwDTlRVMQswCQYDVQQLDAJJTTEcMBoGCSqGSIb3DQEJARYNY2xpZW50QGlj
aGVmdDESMBAGA1UEAwwJbG9jYWxob3N0MB4XDTIyMDExNTAyMjgwMloXDTIyMDIx
NDAyMjgwMloweTELMAkGA1UEBhMCVFcxDzANBgNVBAgMBlRhaXdhbjEMMAoGA1UE
BwwDVFBFMQwwCgYDVQQKDANOVFUxCzAJBgNVBAsMAklNMRwwGgYJKoZIhvcNAQkB
Fg1jbGllbnRAaWNoZWZ0MRIwEAYDVQQDDAlsb2NhbGhvc3QwggEiMA0GCSqGSIb3
DQEBAQUAA4IBDwAwggEKAoIBAQDvguFCoXFo7v1+g0gDbsOD2A7dRFoDl7cylb6C
NWNEraGmpPaDeyiw+/OfqalyPGd3ynQtl8eXb3krJh2QULJyizu2t0Jfqx1Iympk
JhXmW0F0NJMBz0KdTP9+dtbia0UuP60E05Zha9Zgi+3JKnf0CO3ml17/HfAEGO7Y
SK4lqotIUXGisvY8u32oskV7xv1tEgu3dl+XoXQIxiSowYJ1gVL3Sf0DVsceLbRU
kLxa0Nc5QWico538HplyUZWT0Bkh0bcEZY1fiCQphA66M1BH9hrqqwMfPxCPtvk8
Le0xdKuCjOLj0TUbvWhjwPjUyKdhOuya3p2gZcQdXX/PAOlnAgMBAAEwDQYJKoZI
hvcNAQELBQADggEBABou943C6CrhRqo1JH7JhZSnVGufXj0P0qAAm/JyDxcHtbPs
52qU3f1K8KQYI4FH2AFPM2oL4LiavX3fKfjPYsua6SkLvE729zwSjasVwGHfjcRt
6VJiKQtBrMrRDnhKMmlkWwjUmZOyAtmwBRBByNDBDtmtQIVyAy4QHRJuRQ0QN5s1
/+xgW70PMglVW8Dz50xUV9ZUbj90uV0eXd+ggUUOWcEm+0bkhqv+jjRHBjHKQQcn
6507U5/yBI0JU6cc17hQytRdkCqC4gr9YR3SyWPYGaCn4IoB3U65rM/kj4Us/EJ2
rG3clu2TAXBKTpKj1L5iOIWDNl6u2IEOE16eZBk=
-----END CERTIFICATE-----
Certificate:
    Data:
        Version: 1 (0x0)
        Serial Number:
            69:17:1c:d4:97:03:13:96:13:1e:95:11:9c:f5:46:49:94:44:a8:02
        Signature Algorithm: sha256WithRSAEncryption
        Issuer: C = TW, ST = Taiwan, L = TPE, O = NTU, OU = IM, emailAddress = server@icheft, CN = localhost
        Validity
            Not Before: Jan 15 02:28:05 2022 GMT
            Not After : Feb 14 02:28:05 2022 GMT
        Subject: C = TW, ST = Taiwan, L = TPE, O = NTU, OU = IM, emailAddress = server@icheft, CN = localhost
        Subject Public Key Info:
            Public Key Algorithm: rsaEncryption
                Public-Key: (2048 bit)
                Modulus:
                    00:bd:ac:27:b9:a0:2e:52:4d:d6:43:e7:ab:7e:e5:
                    e6:cb:db:2f:8b:bb:51:96:3c:ca:83:e7:81:f1:2f:
                    bc:3f:db:e7:21:23:72:e9:47:84:44:65:6f:b4:cc:
                    a4:3e:38:3a:1a:13:91:74:c3:a6:19:74:c7:c2:00:
                    13:f5:9e:80:20:cd:15:fd:ca:7b:db:96:ab:2e:22:
                    28:f7:0f:15:8b:d2:8e:8e:31:52:c1:53:f7:5c:88:
                    0c:52:00:36:08:09:28:3d:90:c7:c9:43:64:52:e8:
                    2b:d1:32:5b:e5:9c:43:fe:1c:e3:a2:e2:6d:ce:c9:
                    6a:7e:ab:b5:4a:ad:d7:82:9d:d5:e0:ac:ea:4e:1c:
                    1e:27:7d:d0:fc:d4:b2:02:77:f3:ac:70:23:af:2c:
                    e6:70:c2:d1:5b:ff:04:21:d1:39:61:ad:de:bf:28:
                    6f:f2:82:a1:0f:9b:f8:8c:eb:cc:fa:bd:76:f7:47:
                    60:7f:ee:72:9c:b1:03:64:f4:51:31:33:e7:43:35:
                    5c:a1:e6:56:70:c3:fc:b0:ba:e3:3e:6e:81:3c:c4:
                    e7:f9:6b:18:10:3f:9f:5f:5f:6c:7f:12:9c:cd:f8:
                    9b:2e:e8:40:d9:6f:8c:47:88:ef:12:08:30:17:4c:
                    5d:d3:46:4f:95:38:ab:e7:28:30:2a:4c:97:cc:ad:
                    ae:27
                Exponent: 65537 (0x10001)
    Signature Algorithm: sha256WithRSAEncryption
    Signature Value:
        49:fb:33:93:e4:32:31:d6:5a:bf:5e:15:9e:b8:7e:53:6a:66:
        39:3b:db:db:bc:e9:75:b9:09:e6:99:ed:96:65:e1:c8:5e:7b:
        d6:fa:f2:31:12:8f:f3:95:d8:f6:96:69:e5:b3:14:e9:35:c2:
        bf:55:2d:cb:42:61:a7:92:01:6b:c5:88:8a:b7:6f:96:7e:76:
        fd:7e:29:e9:d2:98:84:34:70:21:67:9d:a6:0b:db:e8:77:5e:
        07:a0:36:78:6b:1e:da:66:92:eb:c0:15:6d:0b:1a:72:bb:80:
        62:8b:7c:1c:30:73:15:6a:0e:eb:48:d3:11:5a:02:f5:a8:3a:
        16:23:64:4e:f5:88:c1:17:9f:9a:36:cb:aa:33:89:91:cd:46:
        12:d9:ba:18:1f:6a:93:bb:76:db:19:69:cc:37:e8:13:de:02:
        43:d5:23:71:c4:44:19:13:dc:80:48:f6:ca:0e:f3:e6:41:07:
        c8:da:c3:d6:6e:dc:f1:bc:0d:ba:1b:b2:ad:23:ee:ac:28:2d:
        e6:5b:ae:78:6c:07:97:ec:c3:77:88:86:3d:32:65:91:fd:f3:
        ac:9b:d1:cd:d6:4b:95:2c:6c:e1:43:ff:2c:b7:d3:df:66:14:
        c6:4a:37:b5:96:0d:6a:65:b7:79:18:f8:b4:ce:6d:b3:f6:53:
        a4:86:ca:c4
-----BEGIN CERTIFICATE-----
MIIDeTCCAmECFGkXHNSXAxOWEx6VEZz1RkmURKgCMA0GCSqGSIb3DQEBCwUAMHkx
CzAJBgNVBAYTAlRXMQ8wDQYDVQQIDAZUYWl3YW4xDDAKBgNVBAcMA1RQRTEMMAoG
A1UECgwDTlRVMQswCQYDVQQLDAJJTTEcMBoGCSqGSIb3DQEJARYNc2VydmVyQGlj
aGVmdDESMBAGA1UEAwwJbG9jYWxob3N0MB4XDTIyMDExNTAyMjgwNVoXDTIyMDIx
NDAyMjgwNVoweTELMAkGA1UEBhMCVFcxDzANBgNVBAgMBlRhaXdhbjEMMAoGA1UE
BwwDVFBFMQwwCgYDVQQKDANOVFUxCzAJBgNVBAsMAklNMRwwGgYJKoZIhvcNAQkB
Fg1zZXJ2ZXJAaWNoZWZ0MRIwEAYDVQQDDAlsb2NhbGhvc3QwggEiMA0GCSqGSIb3
DQEBAQUAA4IBDwAwggEKAoIBAQC9rCe5oC5STdZD56t+5ebL2y+Lu1GWPMqD54Hx
L7w/2+chI3LpR4REZW+0zKQ+ODoaE5F0w6YZdMfCABP1noAgzRX9ynvblqsuIij3
DxWL0o6OMVLBU/dciAxSADYICSg9kMfJQ2RS6CvRMlvlnEP+HOOi4m3OyWp+q7VK
rdeCndXgrOpOHB4nfdD81LICd/OscCOvLOZwwtFb/wQh0Tlhrd6/KG/ygqEPm/iM
68z6vXb3R2B/7nKcsQNk9FExM+dDNVyh5lZww/ywuuM+boE8xOf5axgQP59fX2x/
EpzN+Jsu6EDZb4xHiO8SCDAXTF3TRk+VOKvnKDAqTJfMra4nAgMBAAEwDQYJKoZI
hvcNAQELBQADggEBAEn7M5PkMjHWWr9eFZ64flNqZjk729u86XW5CeaZ7ZZl4che
e9b68jESj/OV2PaWaeWzFOk1wr9VLctCYaeSAWvFiIq3b5Z+dv1+KenSmIQ0cCFn
naYL2+h3XgegNnhrHtpmkuvAFW0LGnK7gGKLfBwwcxVqDutI0xFaAvWoOhYjZE71
iMEXn5o2y6oziZHNRhLZuhgfapO7dtsZacw36BPeAkPVI3HERBkT3IBI9soO8+ZB
B8jaw9Zu3PG8Dbobsq0j7qwoLeZbrnhsB5fsw3eIhj0yZZH986yb0c3WS5UsbOFD
/yy3099mFMZKN7WWDWplt3kY+LTObbP2U6SGysQ=
-----END CERTIFICATE-----
